target datalayout = "e-m:e-p270:32:32-p271:32:32-p272:64:64-i64:64-i128:128-f80:128-n8:16:32:64-S128"
target triple = "x86_64-pc-linux-gnu"

%struct._ffi_type = type { i64, i16, i16, ptr }
%struct._object = type { %union.anon, ptr }
%union.anon = type { i64 }
%struct.PyVarObject = type { %struct._object, i64 }
%struct._typeobject = type { %struct.PyVarObject, ptr, i64, i64, ptr, i64, ptr, ptr, ptr, ptr, ptr, ptr, ptr, ptr, ptr, ptr, ptr, ptr, ptr, i64, ptr, ptr, ptr, ptr, i64, ptr, ptr, ptr, ptr, ptr, ptr, ptr, ptr, ptr, i64, ptr, ptr, ptr, ptr, ptr, ptr, ptr, ptr, ptr, ptr, ptr, i32, ptr, ptr, i8, i16 }
%struct.ctypes_state = type { ptr, ptr, ptr, ptr, ptr, ptr, ptr, ptr, ptr, ptr, ptr, ptr, ptr, ptr, ptr, ptr, ptr, ptr, ptr, ptr, ptr, ptr, ptr, ptr, ptr }
%struct.anon = type { i32, i32 }
%struct.tagPyCArgObject = type { %struct._object, ptr, i8, %union.anon.0, ptr, i64 }
%union.anon.0 = type { x86_fp80 }
%struct.tagCDataObject = type { %struct._object, ptr, i32, ptr, i64, i64, i64, ptr, %union.value }
%union.value = type { x86_fp80 }
%struct.PyModuleObject = type { %struct._object, ptr, ptr, ptr, ptr, ptr }

@.str.26 = private unnamed_addr constant [6 x i8] c"byref\00", align 1
@ffi_type_pointer = external global %struct._ffi_type, align 8
@PyExc_TypeError = external global ptr, align 8
@.str.80 = private unnamed_addr constant [53 x i8] c"byref() argument must be a ctypes instance, not '%s'\00", align 1

; Function Attrs: alwaysinline nounwind uwtable
define internal void @Py_INCREF(ptr noundef %0) #3 {
  %2 = alloca ptr, align 8
  %3 = alloca i32, align 4
  %4 = alloca i32, align 4
  store ptr %0, ptr %2, align 8, !tbaa !9
  call void @llvm.lifetime.start.p0(i64 4, ptr %3) #10
  %5 = load ptr, ptr %2, align 8, !tbaa !9
  %6 = getelementptr inbounds nuw %struct._object, ptr %5, i32 0, i32 0
  %7 = getelementptr inbounds nuw %struct.anon, ptr %6, i32 0, i32 0
  %8 = load i32, ptr %7, align 8, !tbaa !16
  store i32 %8, ptr %3, align 4, !tbaa !30
  %9 = load i32, ptr %3, align 4, !tbaa !30
  %10 = icmp slt i32 %9, 0
  br i1 %10, label %11, label %12

11:                                               ; preds = %1
  store i32 1, ptr %4, align 4
  br label %18

12:                                               ; preds = %1
  %13 = load i32, ptr %3, align 4, !tbaa !30
  %14 = add i32 %13, 1
  %15 = load ptr, ptr %2, align 8, !tbaa !9
  %16 = getelementptr inbounds nuw %struct._object, ptr %15, i32 0, i32 0
  %17 = getelementptr inbounds nuw %struct.anon, ptr %16, i32 0, i32 0
  store i32 %14, ptr %17, align 8, !tbaa !16
  store i32 0, ptr %4, align 4
  br label %18

18:                                               ; preds = %12, %11
  call void @llvm.lifetime.end.p0(i64 4, ptr %3) #10
  %19 = load i32, ptr %4, align 4
  switch i32 %19, label %21 [
    i32 0, label %20
    i32 1, label %20
  ]

20:                                               ; preds = %18, %18
  ret void

21:                                               ; preds = %18
  unreachable
}

; Function Attrs: inlinehint nounwind uwtable
define internal i32 @Py_IS_TYPE(ptr noundef %0, ptr noundef %1) #5 {
  %3 = alloca ptr, align 8
  %4 = alloca ptr, align 8
  store ptr %0, ptr %3, align 8, !tbaa !9
  store ptr %1, ptr %4, align 8, !tbaa !65
  %5 = load ptr, ptr %3, align 8, !tbaa !9
  %6 = call ptr @_Py_TYPE(ptr noundef %5)
  %7 = load ptr, ptr %4, align 8, !tbaa !65
  %8 = icmp eq ptr %6, %7
  %9 = zext i1 %8 to i32
  ret i32 %9
}

; Function Attrs: inlinehint nounwind uwtable
define internal ptr @_PyModule_GetState(ptr noundef %0) #5 {
  %2 = alloca ptr, align 8
  store ptr %0, ptr %2, align 8, !tbaa !9
  %3 = load ptr, ptr %2, align 8, !tbaa !9
  %4 = getelementptr inbounds nuw %struct.PyModuleObject, ptr %3, i32 0, i32 3
  %5 = load ptr, ptr %4, align 8, !tbaa !91
  ret ptr %5
}

; Function Attrs: inlinehint nounwind uwtable
define internal ptr @_Py_NewRef(ptr noundef %0) #5 {
  %2 = alloca ptr, align 8
  store ptr %0, ptr %2, align 8, !tbaa !9
  %3 = load ptr, ptr %2, align 8, !tbaa !9
  call void @Py_INCREF(ptr noundef %3)
  %4 = load ptr, ptr %2, align 8, !tbaa !9
  ret ptr %4
}

; Function Attrs: nounwind uwtable
define hidden ptr @PyCArgObject_new(ptr noundef %0) #0 {
  %2 = alloca ptr, align 8
  %3 = alloca ptr, align 8
  %4 = alloca ptr, align 8
  %5 = alloca i32, align 4
  store ptr %0, ptr %3, align 8, !tbaa !3
  call void @llvm.lifetime.start.p0(i64 8, ptr %4) #10
  %6 = load ptr, ptr %3, align 8, !tbaa !3
  %7 = getelementptr inbounds nuw %struct.ctypes_state, ptr %6, i32 0, i32 1
  %8 = load ptr, ptr %7, align 8, !tbaa !17
  %9 = call ptr @_PyObject_GC_New(ptr noundef %8)
  store ptr %9, ptr %4, align 8, !tbaa !18
  %10 = load ptr, ptr %4, align 8, !tbaa !18
  %11 = icmp eq ptr %10, null
  br i1 %11, label %12, label %13

12:                                               ; preds = %1
  store ptr null, ptr %2, align 8
  store i32 1, ptr %5, align 4
  br label %24

13:                                               ; preds = %1
  %14 = load ptr, ptr %4, align 8, !tbaa !18
  %15 = getelementptr inbounds nuw %struct.tagPyCArgObject, ptr %14, i32 0, i32 1
  store ptr null, ptr %15, align 16, !tbaa !20
  %16 = load ptr, ptr %4, align 8, !tbaa !18
  %17 = getelementptr inbounds nuw %struct.tagPyCArgObject, ptr %16, i32 0, i32 2
  store i8 0, ptr %17, align 8, !tbaa !25
  %18 = load ptr, ptr %4, align 8, !tbaa !18
  %19 = getelementptr inbounds nuw %struct.tagPyCArgObject, ptr %18, i32 0, i32 4
  store ptr null, ptr %19, align 16, !tbaa !26
  %20 = load ptr, ptr %4, align 8, !tbaa !18
  %21 = getelementptr inbounds nuw %struct.tagPyCArgObject, ptr %20, i32 0, i32 3
  call void @llvm.memset.p0.i64(ptr align 16 %21, i8 0, i64 16, i1 false)
  %22 = load ptr, ptr %4, align 8, !tbaa !18
  call void @PyObject_GC_Track(ptr noundef %22)
  %23 = load ptr, ptr %4, align 8, !tbaa !18
  store ptr %23, ptr %2, align 8
  store i32 1, ptr %5, align 4
  br label %24

24:                                               ; preds = %13, %12
  call void @llvm.lifetime.end.p0(i64 8, ptr %4) #10
  %25 = load ptr, ptr %2, align 8
  ret ptr %25
}

; Function Attrs: inlinehint nounwind uwtable
define internal ptr @_Py_TYPE(ptr noundef %0) #5 {
  %2 = alloca ptr, align 8
  store ptr %0, ptr %2, align 8, !tbaa !9
  %3 = load ptr, ptr %2, align 8, !tbaa !9
  %4 = getelementptr inbounds nuw %struct._object, ptr %3, i32 0, i32 1
  %5 = load ptr, ptr %4, align 8, !tbaa !29
  ret ptr %5
}

; Function Attrs: inlinehint nounwind uwtable
define internal i32 @PyObject_TypeCheck(ptr noundef %0, ptr noundef %1) #5 {
  %3 = alloca ptr, align 8
  %4 = alloca ptr, align 8
  store ptr %0, ptr %3, align 8, !tbaa !9
  store ptr %1, ptr %4, align 8, !tbaa !65
  %5 = load ptr, ptr %3, align 8, !tbaa !9
  %6 = load ptr, ptr %4, align 8, !tbaa !65
  %7 = call i32 @Py_IS_TYPE(ptr noundef %5, ptr noundef %6)
  %8 = icmp ne i32 %7, 0
  br i1 %8, label %15, label %9

9:                                                ; preds = %2
  %10 = load ptr, ptr %3, align 8, !tbaa !9
  %11 = call ptr @_Py_TYPE(ptr noundef %10)
  %12 = load ptr, ptr %4, align 8, !tbaa !65
  %13 = call i32 @PyType_IsSubtype(ptr noundef %11, ptr noundef %12)
  %14 = icmp ne i32 %13, 0
  br label %15

15:                                               ; preds = %9, %2
  %16 = phi i1 [ true, %2 ], [ %14, %9 ]
  %17 = zext i1 %16 to i32
  ret i32 %17
}

; Function Attrs: inlinehint nounwind uwtable
define internal ptr @get_module_state(ptr noundef %0) #5 {
  %2 = alloca ptr, align 8
  %3 = alloca ptr, align 8
  store ptr %0, ptr %2, align 8, !tbaa !9
  call void @llvm.lifetime.start.p0(i64 8, ptr %3) #10
  %4 = load ptr, ptr %2, align 8, !tbaa !9
  %5 = call ptr @_PyModule_GetState(ptr noundef %4)
  store ptr %5, ptr %3, align 8, !tbaa !3
  %6 = load ptr, ptr %3, align 8, !tbaa !3
  call void @llvm.lifetime.end.p0(i64 8, ptr %3) #10
  ret ptr %6
}

; Function Attrs: nounwind uwtable
define internal ptr @byref(ptr noundef %0, ptr noundef %1) #0 {
  %3 = alloca ptr, align 8
  %4 = alloca ptr, align 8
  %5 = alloca ptr, align 8
  %6 = alloca ptr, align 8
  %7 = alloca ptr, align 8
  %8 = alloca ptr, align 8
  %9 = alloca i64, align 8
  %10 = alloca i32, align 4
  %11 = alloca ptr, align 8
  store ptr %0, ptr %4, align 8, !tbaa !9
  store ptr %1, ptr %5, align 8, !tbaa !9
  call void @llvm.lifetime.start.p0(i64 8, ptr %6) #10
  call void @llvm.lifetime.start.p0(i64 8, ptr %7) #10
  call void @llvm.lifetime.start.p0(i64 8, ptr %8) #10
  store ptr null, ptr %8, align 8, !tbaa !9
  call void @llvm.lifetime.start.p0(i64 8, ptr %9) #10
  store i64 0, ptr %9, align 8, !tbaa !32
  %12 = load ptr, ptr %5, align 8, !tbaa !9
  %13 = call i32 (ptr, ptr, i64, i64, ...) @PyArg_UnpackTuple(ptr noundef %12, ptr noundef @.str.26, i64 noundef 1, i64 noundef 2, ptr noundef %7, ptr noundef %8)
  %14 = icmp ne i32 %13, 0
  br i1 %14, label %16, label %15

15:                                               ; preds = %2
  store ptr null, ptr %3, align 8
  store i32 1, ptr %10, align 4
  br label %69

16:                                               ; preds = %2
  %17 = load ptr, ptr %8, align 8, !tbaa !9
  %18 = icmp ne ptr %17, null
  br i1 %18, label %19, label %29

19:                                               ; preds = %16
  %20 = load ptr, ptr %8, align 8, !tbaa !9
  %21 = call i64 @PyNumber_AsSsize_t(ptr noundef %20, ptr noundef null)
  store i64 %21, ptr %9, align 8, !tbaa !32
  %22 = load i64, ptr %9, align 8, !tbaa !32
  %23 = icmp eq i64 %22, -1
  br i1 %23, label %24, label %28

24:                                               ; preds = %19
  %25 = call ptr @PyErr_Occurred()
  %26 = icmp ne ptr %25, null
  br i1 %26, label %27, label %28

27:                                               ; preds = %24
  store ptr null, ptr %3, align 8
  store i32 1, ptr %10, align 4
  br label %69

28:                                               ; preds = %24, %19
  br label %29

29:                                               ; preds = %28, %16
  call void @llvm.lifetime.start.p0(i64 8, ptr %11) #10
  %30 = load ptr, ptr %4, align 8, !tbaa !9
  %31 = call ptr @get_module_state(ptr noundef %30)
  store ptr %31, ptr %11, align 8, !tbaa !3
  %32 = load ptr, ptr %7, align 8, !tbaa !9
  %33 = load ptr, ptr %11, align 8, !tbaa !3
  %34 = getelementptr inbounds nuw %struct.ctypes_state, ptr %33, i32 0, i32 12
  %35 = load ptr, ptr %34, align 8, !tbaa !83
  %36 = call i32 @PyObject_TypeCheck(ptr noundef %32, ptr noundef %35)
  %37 = icmp ne i32 %36, 0
  br i1 %37, label %45, label %38

38:                                               ; preds = %29
  %39 = load ptr, ptr @PyExc_TypeError, align 8, !tbaa !9
  %40 = load ptr, ptr %7, align 8, !tbaa !9
  %41 = call ptr @_Py_TYPE(ptr noundef %40)
  %42 = getelementptr inbounds nuw %struct._typeobject, ptr %41, i32 0, i32 1
  %43 = load ptr, ptr %42, align 8, !tbaa !66
  %44 = call ptr (ptr, ptr, ...) @PyErr_Format(ptr noundef %39, ptr noundef @.str.80, ptr noundef %43)
  store ptr null, ptr %3, align 8
  store i32 1, ptr %10, align 4
  br label %68

45:                                               ; preds = %29
  %46 = load ptr, ptr %11, align 8, !tbaa !3
  %47 = call ptr @PyCArgObject_new(ptr noundef %46)
  store ptr %47, ptr %6, align 8, !tbaa !18
  %48 = load ptr, ptr %6, align 8, !tbaa !18
  %49 = icmp eq ptr %48, null
  br i1 %49, label %50, label %51

50:                                               ; preds = %45
  store ptr null, ptr %3, align 8
  store i32 1, ptr %10, align 4
  br label %68

51:                                               ; preds = %45
  %52 = load ptr, ptr %6, align 8, !tbaa !18
  %53 = getelementptr inbounds nuw %struct.tagPyCArgObject, ptr %52, i32 0, i32 2
  store i8 80, ptr %53, align 8, !tbaa !25
  %54 = load ptr, ptr %6, align 8, !tbaa !18
  %55 = getelementptr inbounds nuw %struct.tagPyCArgObject, ptr %54, i32 0, i32 1
  store ptr @ffi_type_pointer, ptr %55, align 16, !tbaa !20
  %56 = load ptr, ptr %7, align 8, !tbaa !9
  %57 = call ptr @_Py_NewRef(ptr noundef %56)
  %58 = load ptr, ptr %6, align 8, !tbaa !18
  %59 = getelementptr inbounds nuw %struct.tagPyCArgObject, ptr %58, i32 0, i32 4
  store ptr %57, ptr %59, align 16, !tbaa !26
  %60 = load ptr, ptr %7, align 8, !tbaa !9
  %61 = getelementptr inbounds nuw %struct.tagCDataObject, ptr %60, i32 0, i32 1
  %62 = load ptr, ptr %61, align 16, !tbaa !81
  %63 = load i64, ptr %9, align 8, !tbaa !32
  %64 = getelementptr i8, ptr %62, i64 %63
  %65 = load ptr, ptr %6, align 8, !tbaa !18
  %66 = getelementptr inbounds nuw %struct.tagPyCArgObject, ptr %65, i32 0, i32 3
  store ptr %64, ptr %66, align 16, !tbaa !16
  %67 = load ptr, ptr %6, align 8, !tbaa !18
  store ptr %67, ptr %3, align 8
  store i32 1, ptr %10, align 4
  br label %68

68:                                               ; preds = %51, %50, %38
  call void @llvm.lifetime.end.p0(i64 8, ptr %11) #10
  br label %69

69:                                               ; preds = %68, %27, %15
  call void @llvm.lifetime.end.p0(i64 8, ptr %9) #10
  call void @llvm.lifetime.end.p0(i64 8, ptr %8) #10
  call void @llvm.lifetime.end.p0(i64 8, ptr %7) #10
  call void @llvm.lifetime.end.p0(i64 8, ptr %6) #10
  %70 = load ptr, ptr %3, align 8
  ret ptr %70
}