; Function Attrs: nounwind uwtable
define internal ptr @byref(ptr noundef readonly captures(none) %0, ptr noundef %1) #0 {
  %3 = alloca ptr, align 8
  %4 = alloca ptr, align 8
  call void @llvm.lifetime.start.p0(i64 8, ptr nonnull %3) #10
  call void @llvm.lifetime.start.p0(i64 8, ptr nonnull %4) #10
  store ptr null, ptr %4, align 8, !tbaa !3
  %5 = call i32 (ptr, ptr, i64, i64, ...) @PyArg_UnpackTuple(ptr noundef %1, ptr noundef nonnull @.str.26, i64 noundef 1, i64 noundef 2, ptr noundef nonnull %3, ptr noundef nonnull %4) #10
  %.not = icmp eq i32 %5, 0
  br i1 %.not, label %PyCArgObject_new.exit.thread, label %6

6:                                                ; preds = %2
  %7 = load ptr, ptr %4, align 8, !tbaa !3
  %.not17 = icmp eq ptr %7, null
  br i1 %.not17, label %13, label %8

8:                                                ; preds = %6
  %9 = call i64 @PyNumber_AsSsize_t(ptr noundef nonnull %7, ptr noundef null) #10
  %10 = icmp eq i64 %9, -1
  br i1 %10, label %11, label %13

11:                                               ; preds = %8
  %12 = call ptr @PyErr_Occurred() #10
  %.not18 = icmp eq ptr %12, null
  br i1 %.not18, label %13, label %PyCArgObject_new.exit.thread

13:                                               ; preds = %8, %11, %6
  %.012 = phi i64 [ -1, %11 ], [ %9, %8 ], [ 0, %6 ]
  %14 = getelementptr i8, ptr %0, i64 32
  %.val20 = load ptr, ptr %14, align 8, !tbaa !56
  %15 = load ptr, ptr %3, align 8, !tbaa !3
  %16 = getelementptr inbounds nuw i8, ptr %.val20, i64 96
  %17 = load ptr, ptr %16, align 8, !tbaa !75
  %18 = getelementptr i8, ptr %15, i64 8
  %.val21 = load ptr, ptr %18, align 8, !tbaa !30
  %.not.i = icmp eq ptr %.val21, %17
  br i1 %.not.i, label %PyObject_TypeCheck.exit.thread, label %PyObject_TypeCheck.exit

PyObject_TypeCheck.exit:                          ; preds = %13
  %19 = call i32 @PyType_IsSubtype(ptr noundef %.val21, ptr noundef %17) #10
  %.not23 = icmp eq i32 %19, 0
  br i1 %.not23, label %20, label %PyObject_TypeCheck.exit.thread

20:                                               ; preds = %PyObject_TypeCheck.exit
  %21 = load ptr, ptr @PyExc_TypeError, align 8, !tbaa !3
  %22 = load ptr, ptr %3, align 8, !tbaa !3
  %23 = getelementptr i8, ptr %22, i64 8
  %.val = load ptr, ptr %23, align 8, !tbaa !30
  %24 = getelementptr inbounds nuw i8, ptr %.val, i64 24
  %25 = load ptr, ptr %24, align 8, !tbaa !61
  %26 = call ptr (ptr, ptr, ...) @PyErr_Format(ptr noundef %21, ptr noundef nonnull @.str.80, ptr noundef %25) #10
  br label %PyCArgObject_new.exit.thread

PyObject_TypeCheck.exit.thread:                   ; preds = %13, %PyObject_TypeCheck.exit
  %27 = getelementptr inbounds nuw i8, ptr %.val20, i64 8
  %28 = load ptr, ptr %27, align 8, !tbaa !14
  %29 = call ptr @_PyObject_GC_New(ptr noundef %28) #10
  %30 = icmp eq ptr %29, null
  br i1 %30, label %PyCArgObject_new.exit.thread, label %31

31:                                               ; preds = %PyObject_TypeCheck.exit.thread
  %32 = getelementptr inbounds nuw i8, ptr %29, i64 16
  store ptr null, ptr %32, align 16, !tbaa !15
  %33 = getelementptr inbounds nuw i8, ptr %29, i64 24
  store i8 0, ptr %33, align 8, !tbaa !20
  %34 = getelementptr inbounds nuw i8, ptr %29, i64 32
  call void @llvm.memset.p0.i64(ptr noundef nonnull align 16 dereferenceable(24) %34, i8 0, i64 24, i1 false)
  call void @PyObject_GC_Track(ptr noundef nonnull %29) #10
  store i8 80, ptr %33, align 8, !tbaa !20
  store ptr @ffi_type_pointer, ptr %32, align 16, !tbaa !15
  %35 = load ptr, ptr %3, align 8, !tbaa !3
  %36 = load i32, ptr %35, align 8, !tbaa !11
  %37 = icmp slt i32 %36, 0
  br i1 %37, label %_Py_NewRef.exit, label %38

38:                                               ; preds = %31
  %39 = add nuw i32 %36, 1
  store i32 %39, ptr %35, align 8, !tbaa !11
  %.pre = load ptr, ptr %3, align 8, !tbaa !3
  br label %_Py_NewRef.exit

_Py_NewRef.exit:                                  ; preds = %31, %38
  %40 = phi ptr [ %35, %31 ], [ %.pre, %38 ]
  %41 = getelementptr inbounds nuw i8, ptr %29, i64 48
  store ptr %35, ptr %41, align 16, !tbaa !76
  %42 = getelementptr inbounds nuw i8, ptr %40, i64 16
  %43 = load ptr, ptr %42, align 16, !tbaa !72
  %44 = getelementptr i8, ptr %43, i64 %.012
  store ptr %44, ptr %34, align 16, !tbaa !11
  br label %PyCArgObject_new.exit.thread

PyCArgObject_new.exit.thread:                     ; preds = %PyObject_TypeCheck.exit.thread, %20, %_Py_NewRef.exit, %11, %2
  %.0 = phi ptr [ null, %2 ], [ null, %11 ], [ %29, %_Py_NewRef.exit ], [ null, %20 ], [ null, %PyObject_TypeCheck.exit.thread ]
  call void @llvm.lifetime.end.p0(i64 8, ptr nonnull %4) #10
  call void @llvm.lifetime.end.p0(i64 8, ptr nonnull %3) #10
  ret ptr %.0
}